Certificate:
    Data:
        Version: 3 (0x2)
        Serial Number: 1 (0x1)
    Signature Algorithm: sha1WithRSAEncryption
        Issuer: CN=OpenSIPS, ST=opensips.org, C=IP/emailAddress=team@opensips.org, O=opensips.org
        Validity
            Not Before: Apr 17 10:38:36 2014 GMT
            Not After : Apr 17 10:38:36 2015 GMT
        Subject: C=IP, ST=SIP, O=OpenSIPS project, OU=OpenSIPS TLS tester, CN=OpenSIPS/emailAddress=team@opensips.org
        Subject Public Key Info:
            Public Key Algorithm: rsaEncryption
                Public-Key: (512 bit)
                Modulus:
                    00:ab:fd:ac:cd:b4:0d:f7:59:61:46:55:18:be:4e:
                    d2:8b:89:07:f6:9e:47:50:de:87:eb:f8:e5:6b:98:
                    0a:b2:92:88:a4:5b:71:25:07:f3:b2:82:45:b7:e7:
                    34:01:3b:ef:7b:b9:f9:b7:26:8e:96:45:03:44:53:
                    1b:ad:bb:3c:45
                Exponent: 65537 (0x10001)
        X509v3 extensions:
            X509v3 Basic Constraints: 
                CA:FALSE
    Signature Algorithm: sha1WithRSAEncryption
         5f:cc:bc:e2:c5:e9:81:2d:40:17:80:58:f4:03:7f:30:42:84:
         92:93:13:d9:61:45:84:69:9b:9c:37:a8:b4:74:da:65:2f:ea:
         13:d6:ad:48:b4:57:00:c4:78:f4:2b:35:5a:1a:78:8c:f1:2e:
         0b:44:31:8a:47:4f:3c:97:c8:82:95:9d:2e:88:7e:d8:45:57:
         c6:e6:43:62:d9:0c:53:52:b3:68:58:4f:db:f2:17:9f:15:7d:
         39:2f:43:88:c3:28:94:05:f1:b5:74:ab:a5:83:d3:de:89:6f:
         19:13:22:ce:46:d1:7a:8f:cf:74:ff:b4:42:8a:b6:87:ca:ec:
         86:ed:11:8e:1d:c3:88:8f:db:b6:6d:7e:69:f9:0c:19:61:23:
         67:ec:60:91:97:29:0e:23:7a:f0:6c:c6:b6:6c:f2:d8:89:5c:
         b6:8f:da:c8:ce:19:8c:38:64:70:92:20:ec:c0:29:8d:80:9c:
         05:ef:22:39:b6:40:27:4c:19:32:a0:23:ac:f8:6a:90:a0:a8:
         b9:d6:d2:2d:dc:f8:2a:8d:17:3b:a6:92:12:45:45:03:39:73:
         ee:1f:ef:1c:2e:64:a5:1c:44:94:15:10:1c:fd:f3:05:f9:fd:
         0e:ac:9f:c8:e6:28:fc:55:6a:a5:55:c6:57:4b:e9:5f:72:e9:
         f2:0e:e2:e6
-----BEGIN CERTIFICATE-----
MIICujCCAaKgAwIBAgIBATANBgkqhkiG9w0BAQUFADBwMREwDwYDVQQDEwhPcGVu
U0lQUzEVMBMGA1UECBMMb3BlbnNpcHMub3JnMQswCQYDVQQGEwJJUDEgMB4GCSqG
SIb3DQEJARYRdGVhbUBvcGVuc2lwcy5vcmcxFTATBgNVBAoTDG9wZW5zaXBzLm9y
ZzAeFw0xNDA0MTcxMDM4MzZaFw0xNTA0MTcxMDM4MzZaMIGJMQswCQYDVQQGEwJJ
UDEMMAoGA1UECBMDU0lQMRkwFwYDVQQKExBPcGVuU0lQUyBwcm9qZWN0MRwwGgYD
VQQLExNPcGVuU0lQUyBUTFMgdGVzdGVyMREwDwYDVQQDEwhPcGVuU0lQUzEgMB4G
CSqGSIb3DQEJARYRdGVhbUBvcGVuc2lwcy5vcmcwXDANBgkqhkiG9w0BAQEFAANL
ADBIAkEAq/2szbQN91lhRlUYvk7Si4kH9p5HUN6H6/jla5gKspKIpFtxJQfzsoJF
t+c0ATvve7n5tyaOlkUDRFMbrbs8RQIDAQABow0wCzAJBgNVHRMEAjAAMA0GCSqG
SIb3DQEBBQUAA4IBAQBfzLzixemBLUAXgFj0A38wQoSSkxPZYUWEaZucN6i0dNpl
L+oT1q1ItFcAxHj0KzVaGniM8S4LRDGKR088l8iClZ0uiH7YRVfG5kNi2QxTUrNo
WE/b8hefFX05L0OIwyiUBfG1dKulg9PeiW8ZEyLORtF6j890/7RCiraHyuyG7RGO
HcOIj9u2bX5p+QwZYSNn7GCRlykOI3rwbMa2bPLYiVy2j9rIzhmMOGRwkiDswCmN
gJwF7yI5tkAnTBkyoCOs+GqQoKi51tIt3PgqjRc7ppISRUUDOXPuH+8cLmSlHESU
FRAc/fMF+f0OrJ/I5ij8VWqlVcZXS+lfcunyDuLm
-----END CERTIFICATE-----
