Certificate:
    Data:
        Version: 3 (0x2)
        Serial Number: 1 (0x1)
        Signature Algorithm: sha1WithRSAEncryption
        Issuer: CN=OpenSIPS, ST=opensips.org, C=IP/emailAddress=team@opensips.org, O=opensips.org
        Validity
            Not Before: Jun 25 11:58:01 2020 GMT
            Not After : Jun 23 11:58:01 2030 GMT
        Subject: C=IP, ST=opensips.org, O=OpenSIPS project, OU=OpenSIPS TLS tester, CN=OpenSIPS/emailAddress=team@opensips.org
        Subject Public Key Info:
            Public Key Algorithm: rsaEncryption
                RSA Public-Key: (2048 bit)
                Modulus:
                    00:e9:e3:76:57:ca:c5:51:df:82:30:f0:ec:b7:2b:
                    9d:68:e6:99:7e:8e:ab:56:bf:ed:e4:1a:fa:ed:0b:
                    aa:f2:33:6b:0f:a6:f2:f1:3b:20:41:6d:ea:26:68:
                    73:77:2e:1c:fa:9f:b0:a8:2c:3d:a2:11:31:12:d0:
                    63:6e:8a:34:47:43:a8:e1:f7:d6:71:7e:d3:7c:75:
                    6a:45:eb:81:21:d7:12:b4:9f:43:8e:12:d4:d2:45:
                    2b:93:ce:39:e1:73:ec:8c:26:9e:29:c3:79:c2:5e:
                    74:63:d8:9d:35:aa:80:e6:32:6f:ec:1e:ef:50:04:
                    0a:3e:9b:da:4d:cd:5b:f3:93:5b:26:53:f0:b0:61:
                    d5:40:9f:47:c4:13:c3:60:97:7e:c2:29:e6:12:8d:
                    8d:c1:b0:98:c3:c2:67:d5:08:d2:a4:71:5f:07:8e:
                    ce:f2:81:d1:5f:a6:c2:f8:01:39:66:da:f8:5a:0e:
                    1c:71:2a:e7:f0:72:f7:10:d2:3e:e1:58:25:d4:c1:
                    36:d5:1c:b1:fd:d8:62:3f:95:6b:91:66:77:fc:16:
                    f7:cd:3d:6a:4f:10:d2:6a:1c:80:d3:74:e2:cf:c7:
                    43:50:7a:2d:6b:92:6c:72:52:c7:78:56:b4:88:fc:
                    e2:f8:9e:5a:98:5f:11:0c:1c:1c:86:89:00:f3:98:
                    e2:49
                Exponent: 65537 (0x10001)
        X509v3 extensions:
            X509v3 Basic Constraints: 
                CA:FALSE
    Signature Algorithm: sha1WithRSAEncryption
         12:8a:72:0d:93:5a:8c:04:ce:1a:29:49:2d:d9:dc:e5:48:cf:
         97:2e:a7:65:d3:e5:54:e3:c0:2a:8c:d8:a9:c3:b4:d8:8a:53:
         dc:54:b1:46:34:08:67:73:ff:58:86:ad:2d:c3:fe:1e:14:d1:
         b3:23:6b:73:d7:56:77:33:ff:b5:54:94:69:04:4c:0b:a3:f4:
         10:3c:be:9b:14:d5:50:ad:40:9d:34:e7:fd:e0:09:dd:9c:4b:
         e2:96:e2:b1:87:43:03:ea:96:94:4e:8d:67:a5:9d:4d:eb:f5:
         5d:02:5f:ac:be:f8:36:98:13:57:96:ac:52:76:e1:50:db:ce:
         35:9c:2a:8f:db:a3:ba:a2:a7:96:2b:54:1d:a1:5e:b2:f9:63:
         18:75:79:39:27:91:62:d9:a0:49:61:d2:3a:56:a2:bb:4e:16:
         ee:a9:8f:83:78:e9:d4:68:cd:a6:21:05:a4:e5:5d:8c:28:57:
         99:3b:4e:7b:2c:09:62:7f:f0:5a:b6:b9:05:77:94:e7:95:e5:
         87:e2:60:d0:97:2e:75:21:0b:33:d4:68:d6:3c:7c:7f:2f:b8:
         9c:c9:84:98:ba:f5:d1:59:9c:f1:4c:05:bb:c9:af:16:92:80:
         bb:05:f0:8b:4f:2b:c9:48:b2:15:fe:b2:64:0e:2b:6a:a5:b9:
         a1:63:e8:a7
-----BEGIN CERTIFICATE-----
MIIDizCCAnOgAwIBAgIBATANBgkqhkiG9w0BAQUFADBwMREwDwYDVQQDDAhPcGVu
U0lQUzEVMBMGA1UECAwMb3BlbnNpcHMub3JnMQswCQYDVQQGEwJJUDEgMB4GCSqG
SIb3DQEJARYRdGVhbUBvcGVuc2lwcy5vcmcxFTATBgNVBAoMDG9wZW5zaXBzLm9y
ZzAeFw0yMDA2MjUxMTU4MDFaFw0zMDA2MjMxMTU4MDFaMIGSMQswCQYDVQQGEwJJ
UDEVMBMGA1UECAwMb3BlbnNpcHMub3JnMRkwFwYDVQQKDBBPcGVuU0lQUyBwcm9q
ZWN0MRwwGgYDVQQLDBNPcGVuU0lQUyBUTFMgdGVzdGVyMREwDwYDVQQDDAhPcGVu
U0lQUzEgMB4GCSqGSIb3DQEJARYRdGVhbUBvcGVuc2lwcy5vcmcwggEiMA0GCSqG
SIb3DQEBAQUAA4IBDwAwggEKAoIBAQDp43ZXysVR34Iw8Oy3K51o5pl+jqtWv+3k
GvrtC6ryM2sPpvLxOyBBbeomaHN3Lhz6n7CoLD2iETES0GNuijRHQ6jh99ZxftN8
dWpF64Eh1xK0n0OOEtTSRSuTzjnhc+yMJp4pw3nCXnRj2J01qoDmMm/sHu9QBAo+
m9pNzVvzk1smU/CwYdVAn0fEE8Ngl37CKeYSjY3BsJjDwmfVCNKkcV8Hjs7ygdFf
psL4ATlm2vhaDhxxKufwcvcQ0j7hWCXUwTbVHLH92GI/lWuRZnf8FvfNPWpPENJq
HIDTdOLPx0NQei1rkmxyUsd4VrSI/OL4nlqYXxEMHByGiQDzmOJJAgMBAAGjDTAL
MAkGA1UdEwQCMAAwDQYJKoZIhvcNAQEFBQADggEBABKKcg2TWowEzhopSS3Z3OVI
z5cup2XT5VTjwCqM2KnDtNiKU9xUsUY0CGdz/1iGrS3D/h4U0bMja3PXVncz/7VU
lGkETAuj9BA8vpsU1VCtQJ005/3gCd2cS+KW4rGHQwPqlpROjWelnU3r9V0CX6y+
+DaYE1eWrFJ24VDbzjWcKo/bo7qip5YrVB2hXrL5Yxh1eTknkWLZoElh0jpWortO
Fu6pj4N46dRozaYhBaTlXYwoV5k7TnssCWJ/8Fq2uQV3lOeV5YfiYNCXLnUhCzPU
aNY8fH8vuJzJhJi69dFZnPFMBbvJrxaSgLsF8ItPK8lIshX+smQOK2qluaFj6Kc=
-----END CERTIFICATE-----
