Certificate:
    Data:
        Version: 3 (0x2)
        Serial Number: 1 (0x1)
    Signature Algorithm: sha1WithRSAEncryption
        Issuer: CN=OpenSIPS, ST=opensips.org, C=IP/emailAddress=team@opensips.org, O=opensips.org
        Validity
            Not Before: Mar 17 13:07:36 2015 GMT
            Not After : Mar 16 13:07:36 2016 GMT
        Subject: C=IP, ST=opensips.org, O=OpenSIPS project, OU=OpenSIPS TLS tester, CN=OpenSIPS/emailAddress=team@opensips.org
        Subject Public Key Info:
            Public Key Algorithm: rsaEncryption
                Public-Key: (512 bit)
                Modulus:
                    00:d4:84:7c:1c:b9:bd:36:4a:95:e2:cc:36:32:3a:
                    49:54:31:a9:57:6f:b1:a0:f4:2a:59:79:f0:76:ce:
                    d8:2b:b0:80:50:72:94:1d:0a:c5:a9:b2:13:ee:a6:
                    f3:f4:9e:0d:36:67:cb:e9:dc:30:45:66:5f:cb:9a:
                    3e:a2:82:27:03
                Exponent: 65537 (0x10001)
        X509v3 extensions:
            X509v3 Basic Constraints: 
                CA:FALSE
    Signature Algorithm: sha1WithRSAEncryption
         d1:d6:29:eb:6b:e0:8f:92:7d:1c:de:a1:16:c0:9b:cf:bc:ad:
         19:73:39:8c:e1:07:99:85:26:08:e2:7d:a3:ac:e3:a1:e0:23:
         27:14:ee:37:44:2e:a3:27:2a:16:c6:1f:ff:34:22:4d:47:13:
         7d:10:f4:df:0b:06:b7:99:9f:ae:dc:16:e7:b6:0e:6e:36:54:
         82:19:a1:c9:92:4f:5c:1d:65:d6:7b:08:31:95:d7:9f:5e:2a:
         8b:26:b7:dd:42:ba:10:c4:97:ba:8f:47:c3:99:3f:34:2d:bf:
         06:eb:bf:10:94:50:72:de:80:fa:fb:4e:03:8b:8d:00:e9:5b:
         8c:6f:25:95:7d:68:4d:ba:11:55:86:6d:4b:9e:1a:29:17:27:
         cf:a2:25:eb:4c:21:37:2f:7c:e9:c6:bc:fc:c4:7c:61:30:06:
         78:33:ee:d0:a7:d8:49:7c:4e:f9:a8:be:32:8f:08:86:3e:b0:
         6a:3d:a0:4e:a1:01:21:7b:68:50:98:a9:18:a5:10:19:bf:99:
         bd:c5:ee:0e:6e:f3:06:e4:1c:01:39:4d:c5:8d:35:82:c5:4f:
         cc:4b:c3:f2:82:15:7d:b0:59:f7:cd:85:24:b4:77:1a:78:97:
         08:6f:8a:f4:91:96:cb:5d:68:01:60:82:97:06:a1:fb:39:1b:
         3b:a5:7b:4d
-----BEGIN CERTIFICATE-----
MIICwzCCAaugAwIBAgIBATANBgkqhkiG9w0BAQUFADBwMREwDwYDVQQDEwhPcGVu
U0lQUzEVMBMGA1UECBMMb3BlbnNpcHMub3JnMQswCQYDVQQGEwJJUDEgMB4GCSqG
SIb3DQEJARYRdGVhbUBvcGVuc2lwcy5vcmcxFTATBgNVBAoTDG9wZW5zaXBzLm9y
ZzAeFw0xNTAzMTcxMzA3MzZaFw0xNjAzMTYxMzA3MzZaMIGSMQswCQYDVQQGEwJJ
UDEVMBMGA1UECBMMb3BlbnNpcHMub3JnMRkwFwYDVQQKExBPcGVuU0lQUyBwcm9q
ZWN0MRwwGgYDVQQLExNPcGVuU0lQUyBUTFMgdGVzdGVyMREwDwYDVQQDEwhPcGVu
U0lQUzEgMB4GCSqGSIb3DQEJARYRdGVhbUBvcGVuc2lwcy5vcmcwXDANBgkqhkiG
9w0BAQEFAANLADBIAkEA1IR8HLm9NkqV4sw2MjpJVDGpV2+xoPQqWXnwds7YK7CA
UHKUHQrFqbIT7qbz9J4NNmfL6dwwRWZfy5o+ooInAwIDAQABow0wCzAJBgNVHRME
AjAAMA0GCSqGSIb3DQEBBQUAA4IBAQDR1inra+CPkn0c3qEWwJvPvK0ZczmM4QeZ
hSYI4n2jrOOh4CMnFO43RC6jJyoWxh//NCJNRxN9EPTfCwa3mZ+u3Bbntg5uNlSC
GaHJkk9cHWXWewgxldefXiqLJrfdQroQxJe6j0fDmT80Lb8G678QlFBy3oD6+04D
i40A6VuMbyWVfWhNuhFVhm1LnhopFyfPoiXrTCE3L3zpxrz8xHxhMAZ4M+7Qp9hJ
fE75qL4yjwiGPrBqPaBOoQEhe2hQmKkYpRAZv5m9xe4ObvMG5BwBOU3FjTWCxU/M
S8PyghV9sFn3zYUktHcaeJcIb4r0kZbLXWgBYIKXBqH7ORs7pXtN
-----END CERTIFICATE-----
