Certificate:
    Data:
        Version: 3 (0x2)
        Serial Number: 1 (0x1)
    Signature Algorithm: sha1WithRSAEncryption
        Issuer: CN=OpenSIPS, ST=opensips.org, C=IP/emailAddress=team@opensips.org, O=opensips.org
        Validity
            Not Before: Jul 17 10:42:26 2018 GMT
            Not After : Jul 17 10:42:26 2019 GMT
        Subject: C=IP, ST=opensips.org, O=OpenSIPS project, OU=OpenSIPS TLS tester, CN=OpenSIPS/emailAddress=team@opensips.org
        Subject Public Key Info:
            Public Key Algorithm: rsaEncryption
                Public-Key: (2048 bit)
                Modulus:
                    00:ba:68:44:17:a9:16:c8:5c:8a:08:15:f8:47:77:
                    6d:de:ea:e4:d4:d5:31:d7:a3:34:21:e4:f4:ca:1b:
                    65:9a:e4:da:bb:c3:d0:3a:6d:a2:29:13:76:01:43:
                    5b:69:29:34:8b:97:58:6a:9f:88:b6:a9:d1:ad:94:
                    f1:d0:d7:20:2a:22:4b:29:87:96:dd:d0:42:1c:a4:
                    67:5e:42:10:aa:bd:9d:f2:a3:88:77:61:85:3a:49:
                    81:f1:39:5b:ba:f0:8e:06:76:75:71:1d:77:12:d9:
                    02:83:78:01:a8:ca:53:10:3f:58:de:0b:ad:d5:a5:
                    2a:9b:9f:eb:d0:a6:59:7c:52:4b:1b:9b:bd:7c:56:
                    a2:b9:d9:81:2e:16:3a:e7:89:57:ac:32:77:e8:93:
                    76:88:a6:80:d2:d6:8f:10:b4:5c:e3:4d:a5:eb:82:
                    8c:e8:46:88:ee:c5:28:ba:b0:8b:02:fe:4e:f1:d2:
                    a7:33:b5:31:ef:10:9c:ee:f3:c6:13:78:2f:52:5f:
                    84:40:eb:8c:cf:4b:0a:80:2b:3c:45:e6:55:81:d8:
                    5f:1c:ba:73:45:96:ed:0c:fd:e7:27:d7:84:49:a0:
                    5c:bc:b8:b0:19:ef:3e:1b:21:af:c3:a4:90:f4:b8:
                    da:cc:7b:48:a5:f9:62:de:2e:ee:d0:77:54:61:9a:
                    11:99
                Exponent: 65537 (0x10001)
        X509v3 extensions:
            X509v3 Basic Constraints: 
                CA:FALSE
    Signature Algorithm: sha1WithRSAEncryption
         78:c1:7c:d7:85:0b:00:d7:2f:a9:5c:bf:57:59:0d:8f:77:a6:
         09:21:3a:2b:56:3a:f7:8a:6f:7a:e4:e0:fe:e2:f0:ed:07:bc:
         bc:db:c3:99:32:9f:5b:a6:6d:c1:cd:18:37:81:b0:41:09:4c:
         09:88:a1:49:11:46:ae:6b:14:b5:40:04:93:f1:5d:97:77:c9:
         c0:7e:46:61:50:20:d7:3f:45:4d:4e:0a:85:3e:00:82:21:43:
         9c:c8:0a:c1:d9:ad:b3:17:59:15:2e:11:cb:b2:1b:53:d0:df:
         3a:33:9b:bf:11:5a:c9:e2:d2:b4:69:eb:8e:15:f2:c5:3a:6e:
         15:38:5b:3c:8a:67:f2:18:58:5f:9e:22:3e:8f:35:04:d6:b7:
         28:7a:d0:e4:27:fb:6f:6f:21:49:9a:69:9a:21:7f:b3:ef:2d:
         cd:31:d8:29:8c:21:78:43:03:53:9a:e6:99:63:48:c7:77:cd:
         31:cb:9b:51:e7:08:c0:f5:a7:98:da:63:16:90:bb:7f:e5:0e:
         14:2b:67:bf:23:b1:57:95:0c:c6:35:7a:4c:5e:a4:30:4d:b6:
         7d:ff:84:67:b6:32:2a:fb:f4:74:bc:62:60:80:13:56:00:c9:
         38:d1:61:4b:ea:97:4c:96:96:c4:ef:82:c5:34:88:a3:88:7b:
         0b:be:67:52
-----BEGIN CERTIFICATE-----
MIIDizCCAnOgAwIBAgIBATANBgkqhkiG9w0BAQUFADBwMREwDwYDVQQDDAhPcGVu
U0lQUzEVMBMGA1UECAwMb3BlbnNpcHMub3JnMQswCQYDVQQGEwJJUDEgMB4GCSqG
SIb3DQEJARYRdGVhbUBvcGVuc2lwcy5vcmcxFTATBgNVBAoMDG9wZW5zaXBzLm9y
ZzAeFw0xODA3MTcxMDQyMjZaFw0xOTA3MTcxMDQyMjZaMIGSMQswCQYDVQQGEwJJ
UDEVMBMGA1UECAwMb3BlbnNpcHMub3JnMRkwFwYDVQQKDBBPcGVuU0lQUyBwcm9q
ZWN0MRwwGgYDVQQLDBNPcGVuU0lQUyBUTFMgdGVzdGVyMREwDwYDVQQDDAhPcGVu
U0lQUzEgMB4GCSqGSIb3DQEJARYRdGVhbUBvcGVuc2lwcy5vcmcwggEiMA0GCSqG
SIb3DQEBAQUAA4IBDwAwggEKAoIBAQC6aEQXqRbIXIoIFfhHd23e6uTU1THXozQh
5PTKG2Wa5Nq7w9A6baIpE3YBQ1tpKTSLl1hqn4i2qdGtlPHQ1yAqIksph5bd0EIc
pGdeQhCqvZ3yo4h3YYU6SYHxOVu68I4GdnVxHXcS2QKDeAGoylMQP1jeC63VpSqb
n+vQpll8Uksbm718VqK52YEuFjrniVesMnfok3aIpoDS1o8QtFzjTaXrgozoRoju
xSi6sIsC/k7x0qcztTHvEJzu88YTeC9SX4RA64zPSwqAKzxF5lWB2F8cunNFlu0M
/ecn14RJoFy8uLAZ7z4bIa/DpJD0uNrMe0il+WLeLu7Qd1RhmhGZAgMBAAGjDTAL
MAkGA1UdEwQCMAAwDQYJKoZIhvcNAQEFBQADggEBAHjBfNeFCwDXL6lcv1dZDY93
pgkhOitWOveKb3rk4P7i8O0HvLzbw5kyn1umbcHNGDeBsEEJTAmIoUkRRq5rFLVA
BJPxXZd3ycB+RmFQINc/RU1OCoU+AIIhQ5zICsHZrbMXWRUuEcuyG1PQ3zozm78R
Wsni0rRp644V8sU6bhU4WzyKZ/IYWF+eIj6PNQTWtyh60OQn+29vIUmaaZohf7Pv
Lc0x2CmMIXhDA1Oa5pljSMd3zTHLm1HnCMD1p5jaYxaQu3/lDhQrZ78jsVeVDMY1
ekxepDBNtn3/hGe2Mir79HS8YmCAE1YAyTjRYUvql0yWlsTvgsU0iKOIewu+Z1I=
-----END CERTIFICATE-----
