Certificate:
    Data:
        Version: 3 (0x2)
        Serial Number: 1 (0x1)
    Signature Algorithm: sha1WithRSAEncryption
        Issuer: CN=Your_NAME, ST=Your_STATE, C=CO/emailAddress=YOUR_EMAIL, O=YOUR_ORG_NAME
        Validity
            Not Before: Mar 17 12:52:44 2015 GMT
            Not After : Mar 16 12:52:44 2016 GMT
        Subject: C=XY, ST=Some State, O=My Large Organization Name, OU=My Subunit of Large Organization, CN=somename.somewhere.com/emailAddress=root@somename.somewhere.com
        Subject Public Key Info:
            Public Key Algorithm: rsaEncryption
                Public-Key: (512 bit)
                Modulus:
                    00:c3:e7:40:a5:d5:c8:d6:bb:d4:14:fb:98:50:75:
                    45:a0:78:cb:39:c1:98:8c:d8:3b:84:93:40:b5:09:
                    79:c5:a8:31:c9:47:5b:07:f0:38:55:f3:4a:ea:38:
                    5d:f4:d8:d9:ce:6c:94:93:24:8a:f4:4f:d5:bc:cd:
                    c2:90:44:67:5b
                Exponent: 65537 (0x10001)
        X509v3 extensions:
            X509v3 Basic Constraints: 
                CA:FALSE
    Signature Algorithm: sha1WithRSAEncryption
         00:bc:c0:fc:93:04:6c:ac:4b:eb:3c:7d:77:14:d8:ec:1b:ca:
         e1:e1:e8:ed:4d:de:01:18:19:4a:4e:86:fa:20:ba:9c:88:23:
         1f:42:c6:b1:aa:81:c0:5d:50:eb:fe:8b:f7:51:f4:e3:3c:b3:
         d2:94:9b:09:06:f5:d5:0a:bf:13:68:b6:f5:dc:4d:5f:47:8c:
         8c:2e:e4:5e:e5:56:30:09:3a:c5:31:0b:e2:bb:fa:0f:98:0b:
         e6:2f:52:a2:ce:5f:3f:45:05:af:43:1a:b1:a6:46:aa:55:db:
         11:dd:e4:a0:28:dc:3c:04:a3:4c:a7:13:7c:ef:57:44:3f:16:
         9d:ed:65:8d:a0:09:86:99:b3:c8:23:85:fb:50:72:80:bc:1d:
         9b:14:d7:92:54:11:53:1b:73:9a:f6:20:26:aa:c3:b7:9b:ea:
         ea:10:17:84:39:18:ad:0c:af:9f:f4:e2:93:70:98:0c:13:5e:
         b0:45:4c:64:63:a3:76:bc:82:cc:c8:1a:e4:19:ff:6a:60:ad:
         52:5c:b0:5b:68:42:3d:14:a0:48:44:8e:78:69:d7:bd:2f:04:
         fe:d0:41:6a:1d:6c:ac:1a:3d:ea:8c:60:cd:04:6b:d6:7a:1d:
         2d:93:8e:cf:d6:0c:aa:30:2a:b3:ff:3c:57:98:34:74:0c:e0:
         67:e9:e9:8b
-----BEGIN CERTIFICATE-----
MIIC6TCCAdGgAwIBAgIBATANBgkqhkiG9w0BAQUFADBpMRIwEAYDVQQDFAlZb3Vy
X05BTUUxEzARBgNVBAgUCllvdXJfU1RBVEUxCzAJBgNVBAYTAkNPMRkwFwYJKoZI
hvcNAQkBFgpZT1VSX0VNQUlMMRYwFAYDVQQKFA1ZT1VSX09SR19OQU1FMB4XDTE1
MDMxNzEyNTI0NFoXDTE2MDMxNjEyNTI0NFowgb8xCzAJBgNVBAYTAlhZMRMwEQYD
VQQIEwpTb21lIFN0YXRlMSMwIQYDVQQKExpNeSBMYXJnZSBPcmdhbml6YXRpb24g
TmFtZTEpMCcGA1UECxMgTXkgU3VidW5pdCBvZiBMYXJnZSBPcmdhbml6YXRpb24x
HzAdBgNVBAMTFnNvbWVuYW1lLnNvbWV3aGVyZS5jb20xKjAoBgkqhkiG9w0BCQEW
G3Jvb3RAc29tZW5hbWUuc29tZXdoZXJlLmNvbTBcMA0GCSqGSIb3DQEBAQUAA0sA
MEgCQQDD50Cl1cjWu9QU+5hQdUWgeMs5wZiM2DuEk0C1CXnFqDHJR1sH8DhV80rq
OF302NnObJSTJIr0T9W8zcKQRGdbAgMBAAGjDTALMAkGA1UdEwQCMAAwDQYJKoZI
hvcNAQEFBQADggEBAAC8wPyTBGysS+s8fXcU2OwbyuHh6O1N3gEYGUpOhvogupyI
Ix9CxrGqgcBdUOv+i/dR9OM8s9KUmwkG9dUKvxNotvXcTV9HjIwu5F7lVjAJOsUx
C+K7+g+YC+YvUqLOXz9FBa9DGrGmRqpV2xHd5KAo3DwEo0ynE3zvV0Q/Fp3tZY2g
CYaZs8gjhftQcoC8HZsU15JUEVMbc5r2ICaqw7eb6uoQF4Q5GK0Mr5/04pNwmAwT
XrBFTGRjo3a8gszIGuQZ/2pgrVJcsFtoQj0UoEhEjnhp170vBP7QQWodbKwaPeqM
YM0Ea9Z6HS2Tjs/WDKowKrP/PFeYNHQM4Gfp6Ys=
-----END CERTIFICATE-----
